target datalayout = "e-m:e-p270:32:32-p271:32:32-p272:64:64-i64:64-i128:128-f80:128-n8:16:32:64-S128"
target triple = "x86_64-unknown-linux-gnu"

%struct.Token = type { i32, ptr, i64, x86_fp80, ptr, i32, ptr, ptr, ptr, ptr, i32, i32, i8, i8, ptr, ptr }

; Function Attrs: nounwind uwtable
define internal ptr @join_tokens(ptr noundef %tok, ptr noundef %end) #0 {
entry:
  %tok.addr = alloca ptr, align 8
  %end.addr = alloca ptr, align 8
  %len = alloca i32, align 4
  %t = alloca ptr, align 8
  %buf = alloca ptr, align 8
  %pos = alloca i32, align 4
  %t4 = alloca ptr, align 8
  store ptr %tok, ptr %tok.addr, align 8
  store ptr %end, ptr %end.addr, align 8
  store i32 1, ptr %len, align 4
  %0 = load ptr, ptr %tok.addr, align 8
  store ptr %0, ptr %t, align 8
  br label %for.cond

for.cond:                                         ; preds = %for.inc, %entry
  %1 = load ptr, ptr %t, align 8
  %2 = load ptr, ptr %end.addr, align 8
  %cmp = icmp ne ptr %1, %2
  br i1 %cmp, label %land.rhs, label %land.end

land.rhs:                                         ; preds = %for.cond
  %3 = load ptr, ptr %t, align 8
  %kind = getelementptr inbounds %struct.Token, ptr %3, i32 0, i32 0
  %4 = load i32, ptr %kind, align 16
  %cmp1 = icmp ne i32 %4, 6
  br label %land.end

land.end:                                         ; preds = %land.rhs, %for.cond
  %5 = phi i1 [ false, %for.cond ], [ %cmp1, %land.rhs ]
  br i1 %5, label %for.body, label %for.end

for.body:                                         ; preds = %land.end
  %6 = load ptr, ptr %t, align 8
  %7 = load ptr, ptr %tok.addr, align 8
  %cmp2 = icmp ne ptr %6, %7
  br i1 %cmp2, label %land.lhs.true, label %if.end

land.lhs.true:                                    ; preds = %for.body
  %8 = load ptr, ptr %t, align 8
  %has_space = getelementptr inbounds %struct.Token, ptr %8, i32 0, i32 13
  %9 = load i8, ptr %has_space, align 1
  %tobool = trunc i8 %9 to i1
  br i1 %tobool, label %if.then, label %if.end

if.then:                                          ; preds = %land.lhs.true
  %10 = load i32, ptr %len, align 4
  %inc = add nsw i32 %10, 1
  store i32 %inc, ptr %len, align 4
  br label %if.end

if.end:                                           ; preds = %if.then, %land.lhs.true, %for.body
  %11 = load ptr, ptr %t, align 8
  %len3 = getelementptr inbounds %struct.Token, ptr %11, i32 0, i32 5
  %12 = load i32, ptr %len3, align 8
  %13 = load i32, ptr %len, align 4
  %add = add nsw i32 %13, %12
  store i32 %add, ptr %len, align 4
  br label %for.inc

for.inc:                                          ; preds = %if.end
  %14 = load ptr, ptr %t, align 8
  %next = getelementptr inbounds %struct.Token, ptr %14, i32 0, i32 1
  %15 = load ptr, ptr %next, align 8
  store ptr %15, ptr %t, align 8
  br label %for.cond, !llvm.loop !45

for.end:                                          ; preds = %land.end
  %16 = load i32, ptr %len, align 4
  %conv = sext i32 %16 to i64
  %call = call noalias ptr @calloc(i64 noundef 1, i64 noundef %conv) #9
  store ptr %call, ptr %buf, align 8
  store i32 0, ptr %pos, align 4
  %17 = load ptr, ptr %tok.addr, align 8
  store ptr %17, ptr %t4, align 8
  br label %for.cond5

for.cond5:                                        ; preds = %for.inc28, %for.end
  %18 = load ptr, ptr %t4, align 8
  %19 = load ptr, ptr %end.addr, align 8
  %cmp6 = icmp ne ptr %18, %19
  br i1 %cmp6, label %land.rhs8, label %land.end12

land.rhs8:                                        ; preds = %for.cond5
  %20 = load ptr, ptr %t4, align 8
  %kind9 = getelementptr inbounds %struct.Token, ptr %20, i32 0, i32 0
  %21 = load i32, ptr %kind9, align 16
  %cmp10 = icmp ne i32 %21, 6
  br label %land.end12

land.end12:                                       ; preds = %land.rhs8, %for.cond5
  %22 = phi i1 [ false, %for.cond5 ], [ %cmp10, %land.rhs8 ]
  br i1 %22, label %for.body13, label %for.end30

for.body13:                                       ; preds = %land.end12
  %23 = load ptr, ptr %t4, align 8
  %24 = load ptr, ptr %tok.addr, align 8
  %cmp14 = icmp ne ptr %23, %24
  br i1 %cmp14, label %land.lhs.true16, label %if.end22

land.lhs.true16:                                  ; preds = %for.body13
  %25 = load ptr, ptr %t4, align 8
  %has_space17 = getelementptr inbounds %struct.Token, ptr %25, i32 0, i32 13
  %26 = load i8, ptr %has_space17, align 1
  %tobool18 = trunc i8 %26 to i1
  br i1 %tobool18, label %if.then20, label %if.end22

if.then20:                                        ; preds = %land.lhs.true16
  %27 = load ptr, ptr %buf, align 8
  %28 = load i32, ptr %pos, align 4
  %inc21 = add nsw i32 %28, 1
  store i32 %inc21, ptr %pos, align 4
  %idxprom = sext i32 %28 to i64
  %arrayidx = getelementptr inbounds i8, ptr %27, i64 %idxprom
  store i8 32, ptr %arrayidx, align 1
  br label %if.end22

if.end22:                                         ; preds = %if.then20, %land.lhs.true16, %for.body13
  %29 = load ptr, ptr %buf, align 8
  %30 = load i32, ptr %pos, align 4
  %idx.ext = sext i32 %30 to i64
  %add.ptr = getelementptr inbounds i8, ptr %29, i64 %idx.ext
  %31 = load ptr, ptr %t4, align 8
  %loc = getelementptr inbounds %struct.Token, ptr %31, i32 0, i32 4
  %32 = load ptr, ptr %loc, align 16
  %33 = load ptr, ptr %t4, align 8
  %len23 = getelementptr inbounds %struct.Token, ptr %33, i32 0, i32 5
  %34 = load i32, ptr %len23, align 8
  %conv24 = sext i32 %34 to i64
  %call25 = call ptr @strncpy(ptr noundef %add.ptr, ptr noundef %32, i64 noundef %conv24) #10
  %35 = load ptr, ptr %t4, align 8
  %len26 = getelementptr inbounds %struct.Token, ptr %35, i32 0, i32 5
  %36 = load i32, ptr %len26, align 8
  %37 = load i32, ptr %pos, align 4
  %add27 = add nsw i32 %37, %36
  store i32 %add27, ptr %pos, align 4
  br label %for.inc28

for.inc28:                                        ; preds = %if.end22
  %38 = load ptr, ptr %t4, align 8
  %next29 = getelementptr inbounds %struct.Token, ptr %38, i32 0, i32 1
  %39 = load ptr, ptr %next29, align 8
  store ptr %39, ptr %t4, align 8
  br label %for.cond5, !llvm.loop !46

for.end30:                                        ; preds = %land.end12
  %40 = load ptr, ptr %buf, align 8
  %41 = load i32, ptr %pos, align 4
  %idxprom31 = sext i32 %41 to i64
  %arrayidx32 = getelementptr inbounds i8, ptr %40, i64 %idxprom31
  store i8 0, ptr %arrayidx32, align 1
  %42 = load ptr, ptr %buf, align 8
  ret ptr %42
}