; Function Attrs: nofree nounwind uwtable
define internal fastcc noundef ptr @join_tokens(ptr noundef readonly %tok, ptr noundef readnone %end) unnamed_addr #10 {
entry:
  %cmp.not25 = icmp eq ptr %tok, %end
  br i1 %cmp.not25, label %for.end.thread, label %land.rhs

for.end.thread:                                   ; preds = %entry
  %call35 = tail call noalias dereferenceable_or_null(1) ptr @calloc(i64 noundef 1, i64 noundef 1) #15
  br label %for.end30

land.rhs:                                         ; preds = %entry, %if.end
  %len.027 = phi i32 [ %add, %if.end ], [ 1, %entry ]
  %t.026 = phi ptr [ %5, %if.end ], [ %tok, %entry ]
  %0 = load i32, ptr %t.026, align 16
  %cmp1.not = icmp eq i32 %0, 6
  br i1 %cmp1.not, label %for.end, label %for.body

for.body:                                         ; preds = %land.rhs
  %cmp2.not = icmp eq ptr %t.026, %tok
  br i1 %cmp2.not, label %if.end, label %land.lhs.true

land.lhs.true:                                    ; preds = %for.body
  %has_space = getelementptr inbounds %struct.Token, ptr %t.026, i64 0, i32 13
  %1 = load i8, ptr %has_space, align 1
  %2 = and i8 %1, 1
  %3 = zext nneg i8 %2 to i32
  %spec.select = add i32 %len.027, %3
  br label %if.end

if.end:                                           ; preds = %land.lhs.true, %for.body
  %len.1 = phi i32 [ %len.027, %for.body ], [ %spec.select, %land.lhs.true ]
  %len3 = getelementptr inbounds %struct.Token, ptr %t.026, i64 0, i32 5
  %4 = load i32, ptr %len3, align 8
  %add = add nsw i32 %4, %len.1
  %next = getelementptr inbounds %struct.Token, ptr %t.026, i64 0, i32 1
  %5 = load ptr, ptr %next, align 8
  %cmp.not = icmp eq ptr %5, %end
  br i1 %cmp.not, label %for.end, label %land.rhs, !llvm.loop !49

for.end:                                          ; preds = %land.rhs, %if.end
  %len.0.lcssa.ph = phi i32 [ %len.027, %land.rhs ], [ %add, %if.end ]
  %6 = sext i32 %len.0.lcssa.ph to i64
  %call = tail call noalias ptr @calloc(i64 noundef 1, i64 noundef %6) #15
  br i1 %cmp.not25, label %for.end30, label %land.rhs8

land.rhs8:                                        ; preds = %for.end, %if.end22
  %t4.031 = phi ptr [ %13, %if.end22 ], [ %tok, %for.end ]
  %pos.030 = phi i32 [ %add27, %if.end22 ], [ 0, %for.end ]
  %7 = load i32, ptr %t4.031, align 16
  %cmp10.not = icmp eq i32 %7, 6
  br i1 %cmp10.not, label %for.end30.loopexit, label %for.body13

for.body13:                                       ; preds = %land.rhs8
  %cmp14.not = icmp eq ptr %t4.031, %tok
  br i1 %cmp14.not, label %if.end22, label %land.lhs.true16

land.lhs.true16:                                  ; preds = %for.body13
  %has_space17 = getelementptr inbounds %struct.Token, ptr %t4.031, i64 0, i32 13
  %8 = load i8, ptr %has_space17, align 1
  %9 = and i8 %8, 1
  %tobool18.not = icmp eq i8 %9, 0
  br i1 %tobool18.not, label %if.end22, label %if.then20

if.then20:                                        ; preds = %land.lhs.true16
  %inc21 = add nsw i32 %pos.030, 1
  %idxprom = sext i32 %pos.030 to i64
  %arrayidx = getelementptr inbounds i8, ptr %call, i64 %idxprom
  store i8 32, ptr %arrayidx, align 1
  br label %if.end22

if.end22:                                         ; preds = %if.then20, %land.lhs.true16, %for.body13
  %pos.1 = phi i32 [ %inc21, %if.then20 ], [ %pos.030, %land.lhs.true16 ], [ %pos.030, %for.body13 ]
  %idx.ext = sext i32 %pos.1 to i64
  %add.ptr = getelementptr inbounds i8, ptr %call, i64 %idx.ext
  %loc = getelementptr inbounds %struct.Token, ptr %t4.031, i64 0, i32 4
  %10 = load ptr, ptr %loc, align 16
  %len23 = getelementptr inbounds %struct.Token, ptr %t4.031, i64 0, i32 5
  %11 = load i32, ptr %len23, align 8
  %conv24 = sext i32 %11 to i64
  %call25 = tail call ptr @strncpy(ptr noundef %add.ptr, ptr noundef %10, i64 noundef %conv24) #14
  %12 = load i32, ptr %len23, align 8
  %add27 = add nsw i32 %12, %pos.1
  %next29 = getelementptr inbounds %struct.Token, ptr %t4.031, i64 0, i32 1
  %13 = load ptr, ptr %next29, align 8
  %cmp6.not = icmp eq ptr %13, %end
  br i1 %cmp6.not, label %for.end30.loopexit, label %land.rhs8, !llvm.loop !50

for.end30.loopexit:                               ; preds = %if.end22, %land.rhs8
  %pos.0.lcssa.ph = phi i32 [ %pos.030, %land.rhs8 ], [ %add27, %if.end22 ]
  %14 = sext i32 %pos.0.lcssa.ph to i64
  br label %for.end30

for.end30:                                        ; preds = %for.end.thread, %for.end30.loopexit, %for.end
  %call36 = phi ptr [ %call, %for.end ], [ %call, %for.end30.loopexit ], [ %call35, %for.end.thread ]
  %pos.0.lcssa = phi i64 [ 0, %for.end ], [ %14, %for.end30.loopexit ], [ 0, %for.end.thread ]
  %arrayidx32 = getelementptr inbounds i8, ptr %call36, i64 %pos.0.lcssa
  store i8 0, ptr %arrayidx32, align 1
  ret ptr %call36
}